target datalayout = "e-m:e-p270:32:32-p271:32:32-p272:64:64-i64:64-i128:128-f80:128-n8:16:32:64-S128"
target triple = "x86_64-pc-linux-gnu"

%struct._pdo_stmt_t = type { ptr, ptr, [6 x i8], i16, ptr, ptr, ptr, ptr, i32, i32, %union.anon, ptr, ptr, ptr, i64, ptr, ptr, ptr, %struct._zend_object }
%union.anon = type { %struct.anon.0 }
%struct.anon.0 = type { %struct._zend_fcall_info_cache }
%struct._zend_fcall_info_cache = type { ptr, ptr, ptr, ptr, ptr }
%struct._zend_object = type { %struct._zend_refcounted_h, i32, i32, ptr, ptr, ptr, [1 x %struct._zval_struct] }
%struct._zend_refcounted_h = type { i32, %union.anon.1 }
%union.anon.1 = type { i32 }
%struct._zval_struct = type { %union._zend_value, %union.anon.3, %union.anon.6 }
%union._zend_value = type { i64 }
%union.anon.3 = type { i32 }
%union.anon.6 = type { i32 }
%struct.pdo_sqlite_stmt = type { ptr, ptr, i8 }

@.str = private unnamed_addr constant [114 x i8] c"/home/dtcxzyw/WorkSpace/Projects/compilers/llvm-opt-benchmark/bench/php/php-src/ext/pdo_sqlite/sqlite_statement.c\00", align 1
@.str.4 = private unnamed_addr constant [12 x i8] c"native_type\00", align 1
@zend_known_strings = external global ptr, align 8
@.str.5 = private unnamed_addr constant [9 x i8] c"pdo_type\00", align 1
@.str.6 = private unnamed_addr constant [5 x i8] c"blob\00", align 1
@.str.7 = private unnamed_addr constant [17 x i8] c"sqlite:decl_type\00", align 1
@.str.8 = private unnamed_addr constant [6 x i8] c"table\00", align 1
@.str.9 = private unnamed_addr constant [6 x i8] c"flags\00", align 1

; Function Attrs: alwaysinline nounwind uwtable
define internal void @add_assoc_zval(ptr noundef %0, ptr noundef %1, ptr noundef %2) #3 {
  %4 = alloca ptr, align 8
  %5 = alloca ptr, align 8
  %6 = alloca ptr, align 8
  store ptr %0, ptr %4, align 8, !tbaa !46
  store ptr %1, ptr %5, align 8, !tbaa !40
  store ptr %2, ptr %6, align 8, !tbaa !46
  %7 = load ptr, ptr %4, align 8, !tbaa !46
  %8 = load ptr, ptr %5, align 8, !tbaa !40
  %9 = load ptr, ptr %5, align 8, !tbaa !40
  %10 = call i64 @strlen(ptr noundef %9) #9
  %11 = load ptr, ptr %6, align 8, !tbaa !46
  call void @add_assoc_zval_ex(ptr noundef %7, ptr noundef %8, i64 noundef %10, ptr noundef %11)
  ret void
}

; Function Attrs: alwaysinline nounwind uwtable
define internal void @add_assoc_string(ptr noundef %0, ptr noundef %1, ptr noundef %2) #3 {
  %4 = alloca ptr, align 8
  %5 = alloca ptr, align 8
  %6 = alloca ptr, align 8
  store ptr %0, ptr %4, align 8, !tbaa !46
  store ptr %1, ptr %5, align 8, !tbaa !40
  store ptr %2, ptr %6, align 8, !tbaa !40
  %7 = load ptr, ptr %4, align 8, !tbaa !46
  %8 = load ptr, ptr %5, align 8, !tbaa !40
  %9 = load ptr, ptr %5, align 8, !tbaa !40
  %10 = call i64 @strlen(ptr noundef %9) #9
  %11 = load ptr, ptr %6, align 8, !tbaa !40
  call void @add_assoc_string_ex(ptr noundef %7, ptr noundef %8, i64 noundef %10, ptr noundef %11)
  ret void
}

; Function Attrs: alwaysinline nounwind uwtable
define internal void @add_assoc_long(ptr noundef %0, ptr noundef %1, i64 noundef %2) #3 {
  %4 = alloca ptr, align 8
  %5 = alloca ptr, align 8
  %6 = alloca i64, align 8
  store ptr %0, ptr %4, align 8, !tbaa !46
  store ptr %1, ptr %5, align 8, !tbaa !40
  store i64 %2, ptr %6, align 8, !tbaa !39
  %7 = load ptr, ptr %4, align 8, !tbaa !46
  %8 = load ptr, ptr %5, align 8, !tbaa !40
  %9 = load ptr, ptr %5, align 8, !tbaa !40
  %10 = call i64 @strlen(ptr noundef %9) #9
  %11 = load i64, ptr %6, align 8, !tbaa !39
  call void @add_assoc_long_ex(ptr noundef %7, ptr noundef %8, i64 noundef %10, i64 noundef %11)
  ret void
}

; Function Attrs: alwaysinline nounwind uwtable
define internal void @add_assoc_str(ptr noundef %0, ptr noundef %1, ptr noundef %2) #3 {
  %4 = alloca ptr, align 8
  %5 = alloca ptr, align 8
  %6 = alloca ptr, align 8
  store ptr %0, ptr %4, align 8, !tbaa !46
  store ptr %1, ptr %5, align 8, !tbaa !40
  store ptr %2, ptr %6, align 8, !tbaa !49
  %7 = load ptr, ptr %4, align 8, !tbaa !46
  %8 = load ptr, ptr %5, align 8, !tbaa !40
  %9 = load ptr, ptr %5, align 8, !tbaa !40
  %10 = call i64 @strlen(ptr noundef %9) #9
  %11 = load ptr, ptr %6, align 8, !tbaa !49
  call void @add_assoc_str_ex(ptr noundef %7, ptr noundef %8, i64 noundef %10, ptr noundef %11)
  ret void
}

; Function Attrs: nounwind uwtable
define internal i32 @pdo_sqlite_stmt_col_meta(ptr noundef %0, i64 noundef %1, ptr noundef %2) #0 {
  %4 = alloca i32, align 4
  %5 = alloca ptr, align 8
  %6 = alloca i64, align 8
  %7 = alloca ptr, align 8
  %8 = alloca ptr, align 8
  %9 = alloca ptr, align 8
  %10 = alloca %struct._zval_struct, align 8
  %11 = alloca i32, align 4
  %12 = alloca ptr, align 8
  %13 = alloca ptr, align 8
  %14 = alloca ptr, align 8
  %15 = alloca ptr, align 8
  store ptr %0, ptr %5, align 8, !tbaa !4
  store i64 %1, ptr %6, align 8, !tbaa !39
  store ptr %2, ptr %7, align 8, !tbaa !46
  call void @llvm.lifetime.start.p0(i64 8, ptr %8) #8
  %16 = load ptr, ptr %5, align 8, !tbaa !4
  %17 = getelementptr inbounds nuw %struct._pdo_stmt_t, ptr %16, i32 0, i32 1
  %18 = load ptr, ptr %17, align 8, !tbaa !9
  store ptr %18, ptr %8, align 8, !tbaa !25
  call void @llvm.lifetime.start.p0(i64 8, ptr %9) #8
  call void @llvm.lifetime.start.p0(i64 16, ptr %10) #8
  %19 = load ptr, ptr %8, align 8, !tbaa !25
  %20 = getelementptr inbounds nuw %struct.pdo_sqlite_stmt, ptr %19, i32 0, i32 1
  %21 = load ptr, ptr %20, align 8, !tbaa !26
  %22 = icmp ne ptr %21, null
  br i1 %22, label %24, label %23

23:                                               ; preds = %3
  store i32 -1, ptr %4, align 4
  store i32 1, ptr %11, align 4
  br label %116

24:                                               ; preds = %3
  %25 = load i64, ptr %6, align 8, !tbaa !39
  %26 = load ptr, ptr %8, align 8, !tbaa !25
  %27 = getelementptr inbounds nuw %struct.pdo_sqlite_stmt, ptr %26, i32 0, i32 1
  %28 = load ptr, ptr %27, align 8, !tbaa !26
  %29 = call i32 @sqlite3_column_count(ptr noundef %28)
  %30 = sext i32 %29 to i64
  %31 = icmp sge i64 %25, %30
  br i1 %31, label %32, label %38

32:                                               ; preds = %24
  %33 = load ptr, ptr %5, align 8, !tbaa !4
  %34 = getelementptr inbounds nuw %struct._pdo_stmt_t, ptr %33, i32 0, i32 12
  %35 = load ptr, ptr %34, align 8, !tbaa !37
  %36 = load ptr, ptr %5, align 8, !tbaa !4
  %37 = call i32 @_pdo_sqlite_error(ptr noundef %35, ptr noundef %36, ptr noundef @.str, i32 noundef 313)
  store i32 -1, ptr %4, align 4
  store i32 1, ptr %11, align 4
  br label %116

38:                                               ; preds = %24
  br label %39

39:                                               ; preds = %38
  call void @llvm.lifetime.start.p0(i64 8, ptr %12) #8
  %40 = call ptr @_zend_new_array_0()
  store ptr %40, ptr %12, align 8, !tbaa !62
  call void @llvm.lifetime.start.p0(i64 8, ptr %13) #8
  %41 = load ptr, ptr %7, align 8, !tbaa !46
  store ptr %41, ptr %13, align 8, !tbaa !46
  %42 = load ptr, ptr %12, align 8, !tbaa !62
  %43 = load ptr, ptr %13, align 8, !tbaa !46
  %44 = getelementptr inbounds nuw %struct._zval_struct, ptr %43, i32 0, i32 0
  store ptr %42, ptr %44, align 8, !tbaa !48
  %45 = load ptr, ptr %13, align 8, !tbaa !46
  %46 = getelementptr inbounds nuw %struct._zval_struct, ptr %45, i32 0, i32 1
  store i32 775, ptr %46, align 8, !tbaa !48
  call void @llvm.lifetime.end.p0(i64 8, ptr %13) #8
  call void @llvm.lifetime.end.p0(i64 8, ptr %12) #8
  br label %47

47:                                               ; preds = %39
  br label %48

48:                                               ; preds = %47
  br label %49

49:                                               ; preds = %48
  call void @llvm.lifetime.start.p0(i64 8, ptr %14) #8
  %50 = call ptr @_zend_new_array_0()
  store ptr %50, ptr %14, align 8, !tbaa !62
  call void @llvm.lifetime.start.p0(i64 8, ptr %15) #8
  store ptr %10, ptr %15, align 8, !tbaa !46
  %51 = load ptr, ptr %14, align 8, !tbaa !62
  %52 = load ptr, ptr %15, align 8, !tbaa !46
  %53 = getelementptr inbounds nuw %struct._zval_struct, ptr %52, i32 0, i32 0
  store ptr %51, ptr %53, align 8, !tbaa !48
  %54 = load ptr, ptr %15, align 8, !tbaa !46
  %55 = getelementptr inbounds nuw %struct._zval_struct, ptr %54, i32 0, i32 1
  store i32 775, ptr %55, align 8, !tbaa !48
  call void @llvm.lifetime.end.p0(i64 8, ptr %15) #8
  call void @llvm.lifetime.end.p0(i64 8, ptr %14) #8
  br label %56

56:                                               ; preds = %49
  br label %57

57:                                               ; preds = %56
  %58 = load ptr, ptr %8, align 8, !tbaa !25
  %59 = getelementptr inbounds nuw %struct.pdo_sqlite_stmt, ptr %58, i32 0, i32 1
  %60 = load ptr, ptr %59, align 8, !tbaa !26
  %61 = load i64, ptr %6, align 8, !tbaa !39
  %62 = trunc i64 %61 to i32
  %63 = call i32 @sqlite3_column_type(ptr noundef %60, i32 noundef %62)
  switch i32 %63, label %90 [
    i32 5, label %64
    i32 2, label %70
    i32 4, label %76
    i32 3, label %78
    i32 1, label %84
  ]

64:                                               ; preds = %57
  %65 = load ptr, ptr %7, align 8, !tbaa !46
  %66 = load ptr, ptr @zend_known_strings, align 8, !tbaa !63
  %67 = getelementptr inbounds ptr, ptr %66, i64 58
  %68 = load ptr, ptr %67, align 8, !tbaa !49
  call void @add_assoc_str(ptr noundef %65, ptr noundef @.str.4, ptr noundef %68)
  %69 = load ptr, ptr %7, align 8, !tbaa !46
  call void @add_assoc_long(ptr noundef %69, ptr noundef @.str.5, i64 noundef 0)
  br label %90

70:                                               ; preds = %57
  %71 = load ptr, ptr %7, align 8, !tbaa !46
  %72 = load ptr, ptr @zend_known_strings, align 8, !tbaa !63
  %73 = getelementptr inbounds ptr, ptr %72, i64 41
  %74 = load ptr, ptr %73, align 8, !tbaa !49
  call void @add_assoc_str(ptr noundef %71, ptr noundef @.str.4, ptr noundef %74)
  %75 = load ptr, ptr %7, align 8, !tbaa !46
  call void @add_assoc_long(ptr noundef %75, ptr noundef @.str.5, i64 noundef 2)
  br label %90

76:                                               ; preds = %57
  %77 = call i32 @add_next_index_string(ptr noundef %10, ptr noundef @.str.6)
  br label %78

78:                                               ; preds = %57, %76
  %79 = load ptr, ptr %7, align 8, !tbaa !46
  %80 = load ptr, ptr @zend_known_strings, align 8, !tbaa !63
  %81 = getelementptr inbounds ptr, ptr %80, i64 28
  %82 = load ptr, ptr %81, align 8, !tbaa !49
  call void @add_assoc_str(ptr noundef %79, ptr noundef @.str.4, ptr noundef %82)
  %83 = load ptr, ptr %7, align 8, !tbaa !46
  call void @add_assoc_long(ptr noundef %83, ptr noundef @.str.5, i64 noundef 2)
  br label %90

84:                                               ; preds = %57
  %85 = load ptr, ptr %7, align 8, !tbaa !46
  %86 = load ptr, ptr @zend_known_strings, align 8, !tbaa !63
  %87 = getelementptr inbounds ptr, ptr %86, i64 40
  %88 = load ptr, ptr %87, align 8, !tbaa !49
  call void @add_assoc_str(ptr noundef %85, ptr noundef @.str.4, ptr noundef %88)
  %89 = load ptr, ptr %7, align 8, !tbaa !46
  call void @add_assoc_long(ptr noundef %89, ptr noundef @.str.5, i64 noundef 1)
  br label %90

90:                                               ; preds = %57, %84, %78, %70, %64
  %91 = load ptr, ptr %8, align 8, !tbaa !25
  %92 = getelementptr inbounds nuw %struct.pdo_sqlite_stmt, ptr %91, i32 0, i32 1
  %93 = load ptr, ptr %92, align 8, !tbaa !26
  %94 = load i64, ptr %6, align 8, !tbaa !39
  %95 = trunc i64 %94 to i32
  %96 = call ptr @sqlite3_column_decltype(ptr noundef %93, i32 noundef %95)
  store ptr %96, ptr %9, align 8, !tbaa !40
  %97 = load ptr, ptr %9, align 8, !tbaa !40
  %98 = icmp ne ptr %97, null
  br i1 %98, label %99, label %102

99:                                               ; preds = %90
  %100 = load ptr, ptr %7, align 8, !tbaa !46
  %101 = load ptr, ptr %9, align 8, !tbaa !40
  call void @add_assoc_string(ptr noundef %100, ptr noundef @.str.7, ptr noundef %101)
  br label %102

102:                                              ; preds = %99, %90
  %103 = load ptr, ptr %8, align 8, !tbaa !25
  %104 = getelementptr inbounds nuw %struct.pdo_sqlite_stmt, ptr %103, i32 0, i32 1
  %105 = load ptr, ptr %104, align 8, !tbaa !26
  %106 = load i64, ptr %6, align 8, !tbaa !39
  %107 = trunc i64 %106 to i32
  %108 = call ptr @sqlite3_column_table_name(ptr noundef %105, i32 noundef %107)
  store ptr %108, ptr %9, align 8, !tbaa !40
  %109 = load ptr, ptr %9, align 8, !tbaa !40
  %110 = icmp ne ptr %109, null
  br i1 %110, label %111, label %114

111:                                              ; preds = %102
  %112 = load ptr, ptr %7, align 8, !tbaa !46
  %113 = load ptr, ptr %9, align 8, !tbaa !40
  call void @add_assoc_string(ptr noundef %112, ptr noundef @.str.8, ptr noundef %113)
  br label %114

114:                                              ; preds = %111, %102
  %115 = load ptr, ptr %7, align 8, !tbaa !46
  call void @add_assoc_zval(ptr noundef %115, ptr noundef @.str.9, ptr noundef %10)
  store i32 0, ptr %4, align 4
  store i32 1, ptr %11, align 4
  br label %116

116:                                              ; preds = %114, %32, %23
  call void @llvm.lifetime.end.p0(i64 16, ptr %10) #8
  call void @llvm.lifetime.end.p0(i64 8, ptr %9) #8
  call void @llvm.lifetime.end.p0(i64 8, ptr %8) #8
  %117 = load i32, ptr %4, align 4
  ret i32 %117
}