; Function Attrs: nounwind uwtable
define internal range(i32 -1, 1) i32 @pdo_sqlite_stmt_col_meta(ptr noundef %0, i64 noundef %1, ptr noundef %2) #0 {
  %4 = alloca %struct._zval_struct, align 8
  %5 = getelementptr inbounds nuw i8, ptr %0, i64 8
  %6 = load ptr, ptr %5, align 8, !tbaa !4
  call void @llvm.lifetime.start.p0(i64 16, ptr nonnull %4) #6
  %7 = getelementptr inbounds nuw i8, ptr %6, i64 8
  %8 = load ptr, ptr %7, align 8, !tbaa !23
  %.not = icmp eq ptr %8, null
  br i1 %.not, label %51, label %9

9:                                                ; preds = %3
  %10 = tail call i32 @sqlite3_column_count(ptr noundef nonnull %8) #6
  %11 = sext i32 %10 to i64
  %.not38 = icmp slt i64 %1, %11
  br i1 %.not38, label %16, label %12

12:                                               ; preds = %9
  %13 = getelementptr inbounds nuw i8, ptr %0, i64 112
  %14 = load ptr, ptr %13, align 8, !tbaa !34
  %15 = tail call i32 @_pdo_sqlite_error(ptr noundef %14, ptr noundef nonnull %0, ptr noundef nonnull @.str, i32 noundef 313) #6
  br label %51

16:                                               ; preds = %9
  %17 = tail call ptr @_zend_new_array_0() #6
  store ptr %17, ptr %2, align 8, !tbaa !36
  %18 = getelementptr inbounds nuw i8, ptr %2, i64 8
  store i32 775, ptr %18, align 8, !tbaa !36
  %19 = tail call ptr @_zend_new_array_0() #6
  store ptr %19, ptr %4, align 8, !tbaa !36
  %20 = getelementptr inbounds nuw i8, ptr %4, i64 8
  store i32 775, ptr %20, align 8, !tbaa !36
  %21 = load ptr, ptr %7, align 8, !tbaa !23
  %22 = trunc i64 %1 to i32
  %23 = tail call i32 @sqlite3_column_type(ptr noundef %21, i32 noundef %22) #6
  switch i32 %23, label %42 [
    i32 5, label %24
    i32 2, label %28
    i32 4, label %32
    i32 3, label %34
    i32 1, label %38
  ]

24:                                               ; preds = %16
  %25 = load ptr, ptr @zend_known_strings, align 8, !tbaa !53
  %26 = getelementptr inbounds nuw i8, ptr %25, i64 464
  %27 = load ptr, ptr %26, align 8, !tbaa !45
  tail call void @add_assoc_str_ex(ptr noundef nonnull %2, ptr noundef nonnull @.str.4, i64 noundef 11, ptr noundef %27) #6
  tail call void @add_assoc_long_ex(ptr noundef nonnull %2, ptr noundef nonnull @.str.5, i64 noundef 8, i64 noundef 0) #6
  br label %42

28:                                               ; preds = %16
  %29 = load ptr, ptr @zend_known_strings, align 8, !tbaa !53
  %30 = getelementptr inbounds nuw i8, ptr %29, i64 328
  %31 = load ptr, ptr %30, align 8, !tbaa !45
  tail call void @add_assoc_str_ex(ptr noundef nonnull %2, ptr noundef nonnull @.str.4, i64 noundef 11, ptr noundef %31) #6
  tail call void @add_assoc_long_ex(ptr noundef nonnull %2, ptr noundef nonnull @.str.5, i64 noundef 8, i64 noundef 2) #6
  br label %42

32:                                               ; preds = %16
  %33 = call i32 @add_next_index_string(ptr noundef nonnull %4, ptr noundef nonnull @.str.6) #6
  br label %34

34:                                               ; preds = %32, %16
  %35 = load ptr, ptr @zend_known_strings, align 8, !tbaa !53
  %36 = getelementptr inbounds nuw i8, ptr %35, i64 224
  %37 = load ptr, ptr %36, align 8, !tbaa !45
  call void @add_assoc_str_ex(ptr noundef nonnull %2, ptr noundef nonnull @.str.4, i64 noundef 11, ptr noundef %37) #6
  call void @add_assoc_long_ex(ptr noundef nonnull %2, ptr noundef nonnull @.str.5, i64 noundef 8, i64 noundef 2) #6
  br label %42

38:                                               ; preds = %16
  %39 = load ptr, ptr @zend_known_strings, align 8, !tbaa !53
  %40 = getelementptr inbounds nuw i8, ptr %39, i64 320
  %41 = load ptr, ptr %40, align 8, !tbaa !45
  tail call void @add_assoc_str_ex(ptr noundef nonnull %2, ptr noundef nonnull @.str.4, i64 noundef 11, ptr noundef %41) #6
  tail call void @add_assoc_long_ex(ptr noundef nonnull %2, ptr noundef nonnull @.str.5, i64 noundef 8, i64 noundef 1) #6
  br label %42

42:                                               ; preds = %38, %34, %28, %24, %16
  %43 = load ptr, ptr %7, align 8, !tbaa !23
  %44 = call ptr @sqlite3_column_decltype(ptr noundef %43, i32 noundef %22) #6
  %.not39 = icmp eq ptr %44, null
  br i1 %.not39, label %46, label %45

45:                                               ; preds = %42
  call void @add_assoc_string_ex(ptr noundef nonnull %2, ptr noundef nonnull @.str.7, i64 noundef 16, ptr noundef nonnull %44) #6
  br label %46

46:                                               ; preds = %45, %42
  %47 = load ptr, ptr %7, align 8, !tbaa !23
  %48 = call ptr @sqlite3_column_table_name(ptr noundef %47, i32 noundef %22) #6
  %.not40 = icmp eq ptr %48, null
  br i1 %.not40, label %50, label %49

49:                                               ; preds = %46
  call void @add_assoc_string_ex(ptr noundef nonnull %2, ptr noundef nonnull @.str.8, i64 noundef 5, ptr noundef nonnull %48) #6
  br label %50

50:                                               ; preds = %49, %46
  call void @add_assoc_zval_ex(ptr noundef nonnull %2, ptr noundef nonnull @.str.9, i64 noundef 5, ptr noundef nonnull %4) #6
  br label %51

51:                                               ; preds = %3, %50, %12
  %.0 = phi i32 [ -1, %12 ], [ 0, %50 ], [ -1, %3 ]
  call void @llvm.lifetime.end.p0(i64 16, ptr nonnull %4) #6
  ret i32 %.0
}